; Function Attrs: mustprogress nofree norecurse nosync nounwind willreturn memory(argmem: read) uwtable
define dso_local i64 @brin_minmax_multi_distance_float8(ptr noundef readonly captures(none) %0) local_unnamed_addr #3 {
  %2 = getelementptr inbounds nuw i8, ptr %0, i64 32
  %3 = load double, ptr %2, align 8
  %4 = getelementptr inbounds nuw i8, ptr %0, i64 48
  %5 = load double, ptr %4, align 8
  %6 = fcmp uno double %3, 0.000000e+00
  %7 = fcmp uno double %5, 0.000000e+00
  %or.cond = select i1 %6, i1 %7, i1 false
  br i1 %or.cond, label %12, label %8

8:                                                ; preds = %1
  %or.cond8 = select i1 %6, i1 true, i1 %7
  br i1 %or.cond8, label %12, label %9

9:                                                ; preds = %8
  %10 = fsub double %5, %3
  %11 = bitcast double %10 to i64
  br label %12

12:                                               ; preds = %8, %1, %9
  %.0 = phi i64 [ %11, %9 ], [ 0, %1 ], [ 9218868437227405312, %8 ]
  ret i64 %.0
}